; Function Attrs: nounwind uwtable
define ptr @l_Lean_IR_Borrow_InitParamMap_initBorrowIfNotExported___boxed(ptr noundef %0, ptr noundef %1) local_unnamed_addr #1 {
  %3 = ptrtoint ptr %0 to i64
  %4 = and i64 %3, 1
  %.not = icmp eq i64 %4, 0
  br i1 %.not, label %5, label %lean_dec.exit

5:                                                ; preds = %2
  %6 = load i32, ptr %0, align 4, !tbaa !4
  %7 = icmp sgt i32 %6, 1
  br i1 %7, label %8, label %10, !prof !11

8:                                                ; preds = %5
  %9 = add nsw i32 %6, -1
  store i32 %9, ptr %0, align 4, !tbaa !4
  br label %lean_dec.exit

10:                                               ; preds = %5
  %.not.i = icmp eq i32 %6, 0
  br i1 %.not.i, label %lean_dec.exit, label %11

11:                                               ; preds = %10
  tail call void @lean_dec_ref_cold(ptr noundef nonnull %0) #6
  br label %lean_dec.exit

lean_dec.exit:                                    ; preds = %11, %10, %8, %2
  %12 = and i64 %3, 510
  %13 = icmp eq i64 %12, 0
  br i1 %13, label %14, label %l_Lean_IR_Borrow_InitParamMap_initBorrowIfNotExported.exit

14:                                               ; preds = %lean_dec.exit
  %15 = getelementptr i8, ptr %1, i64 8
  %.val.i.i = load i64, ptr %15, align 8, !tbaa !13
  %16 = tail call ptr @l_Array_mapMUnsafe_map___at_Lean_IR_Borrow_InitParamMap_initBorrow___spec__1(i64 noundef %.val.i.i, i64 noundef 0, ptr noundef %1)
  br label %l_Lean_IR_Borrow_InitParamMap_initBorrowIfNotExported.exit

l_Lean_IR_Borrow_InitParamMap_initBorrowIfNotExported.exit: ; preds = %lean_dec.exit, %14
  %.0.i = phi ptr [ %16, %14 ], [ %1, %lean_dec.exit ]
  ret ptr %.0.i
}